target datalayout = "e-m:e-p270:32:32-p271:32:32-p272:64:64-i64:64-i128:128-f80:128-n8:16:32:64-S128"
target triple = "x86_64-pc-linux-gnu"

%union.pthread_mutex_t = type { %struct.__pthread_mutex_s }
%struct.__pthread_mutex_s = type { i32, i32, i32, i32, i32, i16, i16, %struct.__pthread_internal_list }
%struct.__pthread_internal_list = type { ptr, ptr }

@bio_mutex = internal global [3 x %union.pthread_mutex_t] zeroinitializer, align 16
@bio_job_to_worker = internal global [7 x i32] [i32 0, i32 1, i32 2, i32 1, i32 0, i32 1, i32 2], align 16
@bio_jobs_counter = internal global [7 x i64] zeroinitializer, align 16

; Function Attrs: nounwind uwtable
define dso_local i64 @bioPendingJobsOfType(i32 noundef %0) #0 {
  %2 = alloca i32, align 4
  %3 = alloca i32, align 4
  %4 = alloca i64, align 8
  store i32 %0, ptr %2, align 4, !tbaa !42
  call void @llvm.lifetime.start.p0(i64 4, ptr %3) #9
  %5 = load i32, ptr %2, align 4, !tbaa !42
  %6 = sext i32 %5 to i64
  %7 = getelementptr inbounds [7 x i32], ptr @bio_job_to_worker, i64 0, i64 %6
  %8 = load i32, ptr %7, align 4, !tbaa !42
  store i32 %8, ptr %3, align 4, !tbaa !42
  %9 = load i32, ptr %3, align 4, !tbaa !42
  %10 = zext i32 %9 to i64
  %11 = getelementptr inbounds nuw [3 x %union.pthread_mutex_t], ptr @bio_mutex, i64 0, i64 %10
  %12 = call i32 @pthread_mutex_lock(ptr noundef %11) #9
  call void @llvm.lifetime.start.p0(i64 8, ptr %4) #9
  %13 = load i32, ptr %2, align 4, !tbaa !42
  %14 = sext i32 %13 to i64
  %15 = getelementptr inbounds [7 x i64], ptr @bio_jobs_counter, i64 0, i64 %14
  %16 = load i64, ptr %15, align 8, !tbaa !5
  store i64 %16, ptr %4, align 8, !tbaa !5
  %17 = load i32, ptr %3, align 4, !tbaa !42
  %18 = zext i32 %17 to i64
  %19 = getelementptr inbounds nuw [3 x %union.pthread_mutex_t], ptr @bio_mutex, i64 0, i64 %18
  %20 = call i32 @pthread_mutex_unlock(ptr noundef %19) #9
  %21 = load i64, ptr %4, align 8, !tbaa !5
  call void @llvm.lifetime.end.p0(i64 8, ptr %4) #9
  call void @llvm.lifetime.end.p0(i64 4, ptr %3) #9
  ret i64 %21
}