; Function Attrs: nounwind uwtable
define dso_local i64 @bioPendingJobsOfType(i32 noundef %0) local_unnamed_addr #0 {
  %2 = sext i32 %0 to i64
  %3 = getelementptr inbounds [7 x i32], ptr @bio_job_to_worker, i64 0, i64 %2
  %4 = load i32, ptr %3, align 4, !tbaa !41
  %5 = zext i32 %4 to i64
  %6 = getelementptr inbounds nuw [3 x %union.pthread_mutex_t], ptr @bio_mutex, i64 0, i64 %5
  %7 = tail call i32 @pthread_mutex_lock(ptr noundef nonnull %6) #11
  %8 = getelementptr inbounds [7 x i64], ptr @bio_jobs_counter, i64 0, i64 %2
  %9 = load i64, ptr %8, align 8, !tbaa !43
  %10 = tail call i32 @pthread_mutex_unlock(ptr noundef nonnull %6) #11
  ret i64 %9
}